; Function Attrs: nounwind uwtable
define range(i32 -1, 1) i32 @H5Pget_elink_cb(i64 noundef %0, ptr noundef writeonly %1, ptr noundef writeonly %2) local_unnamed_addr #0 {
  %4 = alloca %struct.H5L_elink_cb_t, align 8
  %5 = load i8, ptr @H5_libinit_g, align 1
  %6 = trunc i8 %5 to i1
  %7 = load i8, ptr @H5_libterm_g, align 1
  %8 = trunc i8 %7 to i1
  %9 = select i1 %6, i1 true, i1 %8
  br i1 %9, label %17, label %10

10:                                               ; preds = %3
  %11 = tail call i32 @H5_init_library() #8
  %12 = icmp slt i32 %11, 0
  br i1 %12, label %13, label %17

13:                                               ; preds = %10
  %14 = load i64, ptr @H5E_FUNC_g, align 8
  %15 = load i64, ptr @H5E_CANTINIT_g, align 8
  %16 = tail call i32 (ptr, ptr, i32, i64, i64, ptr, ...) @H5E_printf_stack(ptr noundef nonnull @.str.1, ptr noundef nonnull @__func__.H5Pget_elink_cb, i32 noundef 1177, i64 noundef %14, i64 noundef %15, ptr noundef nonnull @.str.2) #8
  br label %.thread26

17:                                               ; preds = %10, %3
  %18 = tail call i32 @H5CX_push() #8
  %19 = icmp slt i32 %18, 0
  br i1 %19, label %20, label %24

20:                                               ; preds = %17
  %21 = load i64, ptr @H5E_FUNC_g, align 8
  %22 = load i64, ptr @H5E_CANTSET_g, align 8
  %23 = tail call i32 (ptr, ptr, i32, i64, i64, ptr, ...) @H5E_printf_stack(ptr noundef nonnull @.str.1, ptr noundef nonnull @__func__.H5Pget_elink_cb, i32 noundef 1177, i64 noundef %21, i64 noundef %22, ptr noundef nonnull @.str.3) #8
  br label %.thread26

24:                                               ; preds = %17
  %25 = tail call i32 @H5E_clear_stack() #8
  %26 = load i64, ptr @H5P_CLS_LINK_ACCESS_ID_g, align 8
  %27 = tail call ptr @H5P_object_verify(i64 noundef %0, i64 noundef %26) #8
  %28 = icmp eq ptr %27, null
  br i1 %28, label %29, label %33

29:                                               ; preds = %24
  %30 = load i64, ptr @H5E_ID_g, align 8
  %31 = load i64, ptr @H5E_BADID_g, align 8
  %32 = tail call i32 (ptr, ptr, i32, i64, i64, ptr, ...) @H5E_printf_stack(ptr noundef nonnull @.str.1, ptr noundef nonnull @__func__.H5Pget_elink_cb, i32 noundef 1181, i64 noundef %30, i64 noundef %31, ptr noundef nonnull @.str.5) #8
  br label %.thread32

33:                                               ; preds = %24
  %34 = call i32 @H5P_get(ptr noundef nonnull %27, ptr noundef nonnull @.str.22, ptr noundef nonnull %4) #8
  %35 = icmp slt i32 %34, 0
  br i1 %35, label %36, label %40

36:                                               ; preds = %33
  %37 = load i64, ptr @H5E_PLIST_g, align 8
  %38 = load i64, ptr @H5E_CANTGET_g, align 8
  %39 = call i32 (ptr, ptr, i32, i64, i64, ptr, ...) @H5E_printf_stack(ptr noundef nonnull @.str.1, ptr noundef nonnull @__func__.H5Pget_elink_cb, i32 noundef 1185, i64 noundef %37, i64 noundef %38, ptr noundef nonnull @.str.24) #8
  br label %.thread32

40:                                               ; preds = %33
  %.not = icmp eq ptr %1, null
  br i1 %.not, label %43, label %41

41:                                               ; preds = %40
  %42 = load ptr, ptr %4, align 8
  store ptr %42, ptr %1, align 8
  br label %43

43:                                               ; preds = %41, %40
  %.not17 = icmp eq ptr %2, null
  br i1 %.not17, label %48, label %44

44:                                               ; preds = %43
  %45 = getelementptr inbounds nuw i8, ptr %4, i64 8
  %46 = load ptr, ptr %45, align 8
  store ptr %46, ptr %2, align 8
  br label %48

.thread32:                                        ; preds = %36, %29
  %47 = call i32 @H5CX_pop(i1 noundef zeroext true) #8
  br label %.thread26

48:                                               ; preds = %43, %44
  %49 = call i32 @H5CX_pop(i1 noundef zeroext true) #8
  br label %51

.thread26:                                        ; preds = %20, %13, %.thread32
  %50 = call i32 @H5E_dump_api_stack() #8
  br label %51

51:                                               ; preds = %48, %.thread26
  %.0132129 = phi i32 [ -1, %.thread26 ], [ 0, %48 ]
  ret i32 %.0132129
}